; Function Attrs: mustprogress nofree norecurse nounwind willreturn memory(readwrite, inaccessiblemem: none) uwtable
define noundef ptr @_ZN7rocksdb19ThreadStatusUpdater20GetLocalThreadStatusEv(ptr noundef nonnull readnone align 8 captures(none) dereferenceable(216) %0) local_unnamed_addr #8 align 2 {
  %2 = tail call align 8 ptr @llvm.threadlocal.address.p0(ptr align 8 @_ZN7rocksdb19ThreadStatusUpdater19thread_status_data_E)
  %3 = load ptr, ptr %2, align 8, !tbaa !14
  %4 = icmp eq ptr %3, null
  br i1 %4, label %8, label %5

5:                                                ; preds = %1
  %6 = load atomic i8, ptr %3 monotonic, align 1
  %7 = trunc i8 %6 to i1
  %spec.select = select i1 %7, ptr %3, ptr null
  br label %8

8:                                                ; preds = %5, %1
  %.0 = phi ptr [ null, %1 ], [ %spec.select, %5 ]
  ret ptr %.0
}